; Function Attrs: nounwind uwtable
define void @evdns_base_free(ptr noundef %0, i32 noundef %1) local_unnamed_addr #2 {
  %3 = getelementptr inbounds nuw i8, ptr %0, i64 344
  %4 = load ptr, ptr %3, align 8
  %.not = icmp eq ptr %4, null
  br i1 %.not, label %8, label %5

5:                                                ; preds = %2
  %6 = load ptr, ptr getelementptr inbounds nuw (i8, ptr @evthread_lock_fns_, i64 24), align 8
  %7 = tail call i32 %6(i32 noundef 0, ptr noundef nonnull %4) #21
  br label %8

8:                                                ; preds = %2, %5
  tail call fastcc void @evdns_base_free_and_unlock(ptr noundef nonnull %0, i32 noundef %1)
  ret void
}